target datalayout = "e-m:e-p270:32:32-p271:32:32-p272:64:64-i64:64-i128:128-f80:128-n8:16:32:64-S128"
target triple = "x86_64-pc-linux-gnu"

%struct.EVP_CAMELLIA_KEY = type { %struct.camellia_key_st, ptr, %union.anon.0 }
%struct.camellia_key_st = type { %union.anon, i32 }
%union.anon = type { double, [264 x i8] }
%union.anon.0 = type { ptr }

@.str = private unnamed_addr constant [35 x i8] c"../openssl/crypto/evp/e_camellia.c\00", align 1
@__func__.camellia_init_key = private unnamed_addr constant [18 x i8] c"camellia_init_key\00", align 1

; Function Attrs: nounwind uwtable
define internal i32 @camellia_init_key(ptr noundef %0, ptr noundef %1, ptr noundef %2, i32 noundef %3) #0 {
  %5 = alloca i32, align 4
  %6 = alloca ptr, align 8
  %7 = alloca ptr, align 8
  %8 = alloca ptr, align 8
  %9 = alloca i32, align 4
  %10 = alloca i32, align 4
  %11 = alloca i32, align 4
  %12 = alloca ptr, align 8
  %13 = alloca i32, align 4
  store ptr %0, ptr %6, align 8, !tbaa !3
  store ptr %1, ptr %7, align 8, !tbaa !8
  store ptr %2, ptr %8, align 8, !tbaa !8
  store i32 %3, ptr %9, align 4, !tbaa !10
  call void @llvm.lifetime.start.p0(i64 4, ptr %10) #3
  call void @llvm.lifetime.start.p0(i64 4, ptr %11) #3
  call void @llvm.lifetime.start.p0(i64 8, ptr %12) #3
  %14 = load ptr, ptr %6, align 8, !tbaa !3
  %15 = call ptr @EVP_CIPHER_CTX_get_cipher_data(ptr noundef %14)
  store ptr %15, ptr %12, align 8, !tbaa !12
  %16 = load ptr, ptr %7, align 8, !tbaa !8
  %17 = load ptr, ptr %6, align 8, !tbaa !3
  %18 = call i32 @EVP_CIPHER_CTX_get_key_length(ptr noundef %17)
  %19 = mul nsw i32 %18, 8
  %20 = load ptr, ptr %12, align 8, !tbaa !12
  %21 = getelementptr inbounds nuw %struct.EVP_CAMELLIA_KEY, ptr %20, i32 0, i32 0
  %22 = call i32 @Camellia_set_key(ptr noundef %16, i32 noundef %19, ptr noundef %21)
  store i32 %22, ptr %10, align 4, !tbaa !10
  %23 = load i32, ptr %10, align 4, !tbaa !10
  %24 = icmp slt i32 %23, 0
  br i1 %24, label %25, label %26

25:                                               ; preds = %4
  call void @ERR_new()
  call void @ERR_set_debug(ptr noundef @.str, i32 noundef 201, ptr noundef @__func__.camellia_init_key)
  call void (i32, i32, ptr, ...) @ERR_set_error(i32 noundef 6, i32 noundef 157, ptr noundef null)
  store i32 0, ptr %5, align 4
  store i32 1, ptr %13, align 4
  br label %55

26:                                               ; preds = %4
  %27 = load ptr, ptr %6, align 8, !tbaa !3
  %28 = call ptr @EVP_CIPHER_CTX_get0_cipher(ptr noundef %27)
  %29 = call i32 @EVP_CIPHER_get_mode(ptr noundef %28)
  store i32 %29, ptr %11, align 4, !tbaa !10
  %30 = load i32, ptr %11, align 4, !tbaa !10
  %31 = icmp eq i32 %30, 1
  br i1 %31, label %35, label %32

32:                                               ; preds = %26
  %33 = load i32, ptr %11, align 4, !tbaa !10
  %34 = icmp eq i32 %33, 2
  br i1 %34, label %35, label %46

35:                                               ; preds = %32, %26
  %36 = load i32, ptr %9, align 4, !tbaa !10
  %37 = icmp ne i32 %36, 0
  br i1 %37, label %46, label %38

38:                                               ; preds = %35
  %39 = load ptr, ptr %12, align 8, !tbaa !12
  %40 = getelementptr inbounds nuw %struct.EVP_CAMELLIA_KEY, ptr %39, i32 0, i32 1
  store ptr @Camellia_decrypt, ptr %40, align 8, !tbaa !13
  %41 = load i32, ptr %11, align 4, !tbaa !10
  %42 = icmp eq i32 %41, 2
  %43 = select i1 %42, ptr @Camellia_cbc_encrypt, ptr null
  %44 = load ptr, ptr %12, align 8, !tbaa !12
  %45 = getelementptr inbounds nuw %struct.EVP_CAMELLIA_KEY, ptr %44, i32 0, i32 2
  store ptr %43, ptr %45, align 8, !tbaa !16
  br label %54

46:                                               ; preds = %35, %32
  %47 = load ptr, ptr %12, align 8, !tbaa !12
  %48 = getelementptr inbounds nuw %struct.EVP_CAMELLIA_KEY, ptr %47, i32 0, i32 1
  store ptr @Camellia_encrypt, ptr %48, align 8, !tbaa !13
  %49 = load i32, ptr %11, align 4, !tbaa !10
  %50 = icmp eq i32 %49, 2
  %51 = select i1 %50, ptr @Camellia_cbc_encrypt, ptr null
  %52 = load ptr, ptr %12, align 8, !tbaa !12
  %53 = getelementptr inbounds nuw %struct.EVP_CAMELLIA_KEY, ptr %52, i32 0, i32 2
  store ptr %51, ptr %53, align 8, !tbaa !16
  br label %54

54:                                               ; preds = %46, %38
  store i32 1, ptr %5, align 4
  store i32 1, ptr %13, align 4
  br label %55

55:                                               ; preds = %54, %25
  call void @llvm.lifetime.end.p0(i64 8, ptr %12) #3
  call void @llvm.lifetime.end.p0(i64 4, ptr %11) #3
  call void @llvm.lifetime.end.p0(i64 4, ptr %10) #3
  %56 = load i32, ptr %5, align 4
  ret i32 %56
}