; Function Attrs: nounwind uwtable
define internal range(i32 0, 2) i32 @camellia_init_key(ptr noundef %0, ptr noundef %1, ptr readnone captures(none) %2, i32 noundef %3) #1 {
  %5 = tail call ptr @EVP_CIPHER_CTX_get_cipher_data(ptr noundef %0) #4
  %6 = tail call i32 @EVP_CIPHER_CTX_get_key_length(ptr noundef %0) #4
  %7 = shl nsw i32 %6, 3
  %8 = tail call i32 @Camellia_set_key(ptr noundef %1, i32 noundef %7, ptr noundef %5) #4
  %9 = icmp slt i32 %8, 0
  br i1 %9, label %10, label %11

10:                                               ; preds = %4
  tail call void @ERR_new() #4
  tail call void @ERR_set_debug(ptr noundef nonnull @.str, i32 noundef 201, ptr noundef nonnull @__func__.camellia_init_key) #4
  tail call void (i32, i32, ptr, ...) @ERR_set_error(i32 noundef 6, i32 noundef 157, ptr noundef null) #4
  br label %22

11:                                               ; preds = %4
  %12 = tail call ptr @EVP_CIPHER_CTX_get0_cipher(ptr noundef %0) #4
  %13 = tail call i32 @EVP_CIPHER_get_mode(ptr noundef %12) #4
  %14 = icmp eq i32 %13, 2
  %15 = add i32 %13, -3
  %or.cond = icmp ult i32 %15, -2
  %16 = icmp ne i32 %3, 0
  %or.cond3 = or i1 %16, %or.cond
  %17 = getelementptr inbounds nuw i8, ptr %5, i64 280
  %18 = select i1 %14, ptr @Camellia_cbc_encrypt, ptr null
  %19 = getelementptr inbounds nuw i8, ptr %5, i64 288
  br i1 %or.cond3, label %21, label %20

20:                                               ; preds = %11
  store ptr @Camellia_decrypt, ptr %17, align 8, !tbaa !3
  store ptr %18, ptr %19, align 8, !tbaa !10
  br label %22

21:                                               ; preds = %11
  store ptr @Camellia_encrypt, ptr %17, align 8, !tbaa !3
  store ptr %18, ptr %19, align 8, !tbaa !10
  br label %22

22:                                               ; preds = %20, %21, %10
  %.0 = phi i32 [ 0, %10 ], [ 1, %21 ], [ 1, %20 ]
  ret i32 %.0
}